Certificate:
    Data:
        Version: 3 (0x2)
        Serial Number: 1 (0x1)
    Signature Algorithm: sha256WithRSAEncryption
        Issuer: CN=devcert
        Validity
            Not Before: May 17 05:14:06 2021 GMT
            Not After : Aug 20 05:14:06 2023 GMT
        Subject: CN=localhost
        Subject Public Key Info:
            Public Key Algorithm: rsaEncryption
                Public-Key: (2048 bit)
                Modulus:
                    00:b7:1e:90:72:bd:27:05:fb:0b:7e:53:f6:70:98:
                    ae:11:c9:3a:00:83:16:ce:7e:ac:fd:73:7e:a2:81:
                    c2:74:f7:db:9a:7c:af:91:14:03:00:a2:e9:6a:83:
                    cb:97:9d:ce:15:9b:aa:11:fc:e8:4f:31:83:50:38:
                    80:4d:cb:04:82:06:2b:29:5c:46:66:3e:bf:ea:6b:
                    53:af:65:3a:bd:bd:c0:1b:2c:7e:90:64:e6:82:94:
                    ff:dc:dc:02:df:62:65:74:2c:9a:c2:2c:85:4d:8e:
                    f5:f3:b8:fd:4a:fa:39:0f:d2:e5:ab:61:33:d6:d8:
                    0d:a4:e4:c0:83:56:1b:12:3a:59:bc:d5:df:ca:05:
                    c5:76:71:dd:5a:37:07:64:89:e8:f9:b1:ad:75:bc:
                    ff:d5:e7:cf:de:d8:a7:a5:95:f4:fa:91:df:e8:32:
                    e9:a2:d9:85:2a:ee:3b:77:59:01:2d:bc:45:34:d9:
                    b0:9b:ae:10:54:b7:02:87:89:f1:29:a9:3d:ee:32:
                    3b:b5:00:1d:02:ac:95:e1:65:75:40:88:ef:8d:0f:
                    ec:36:bd:ef:41:14:e0:cb:26:6e:e8:ce:b8:8d:0b:
                    bf:b2:1b:3d:19:e8:42:a5:5e:29:c5:a9:9d:32:04:
                    8e:aa:85:2b:08:96:22:11:59:38:3c:89:7d:bd:93:
                    a5:cd
                Exponent: 65537 (0x10001)
        X509v3 extensions:
            X509v3 Basic Constraints: critical
                CA:FALSE
            X509v3 Subject Key Identifier: 
                40:0A:12:0F:68:D9:89:96:E1:9B:30:35:8C:2E:92:A9:1C:CC:3D:38
            X509v3 Authority Key Identifier: 
                keyid:A9:64:32:43:99:88:DD:24:98:2F:A9:80:1E:A5:C6:A6:6C:32:70:23
                DirName:/CN=devcert
                serial:E4:21:16:6D:46:92:27:A7

            X509v3 Key Usage: critical
                Digital Signature, Key Encipherment
            X509v3 Extended Key Usage: 
                TLS Web Server Authentication
            X509v3 Subject Alternative Name: 
                DNS:localhost, DNS:*.localhost
    Signature Algorithm: sha256WithRSAEncryption
         6d:52:36:62:a7:b4:0e:f6:6f:41:ed:fd:df:4d:4d:1f:c8:9b:
         7d:7d:9e:9c:b0:b7:57:39:e9:90:af:f1:42:d3:e2:a0:c7:ab:
         bc:62:d6:0a:a4:dc:d8:22:98:08:f1:5f:1a:32:b1:f6:3c:45:
         6d:d8:7b:1f:90:8d:4f:f7:12:b7:20:93:75:58:71:6a:7e:61:
         35:94:56:34:7b:6c:d9:dc:63:c6:28:fd:df:25:f2:84:32:60:
         69:10:47:cf:ca:1b:8f:7e:c0:36:09:a7:fd:31:d1:29:ac:35:
         88:c8:09:7b:0d:6e:a9:0c:dc:16:01:d9:7c:3b:cf:e2:1e:64:
         43:25:2d:a8:0b:f8:67:1f:8d:6c:ee:f7:74:6f:11:18:dd:30:
         73:2d:40:e3:ec:ea:a2:c9:63:80:ba:a2:52:62:ae:5a:7d:12:
         4e:fe:ca:b4:0c:c8:b2:1d:51:6f:1e:43:db:d8:07:8e:39:1e:
         7f:8b:a2:a4:46:e2:5e:3b:cd:08:89:58:67:a4:c2:3a:14:48:
         b7:83:20:90:90:c4:6b:cc:6a:9c:0a:4b:a1:9d:6f:24:89:2b:
         fc:e2:e4:19:96:a7:2f:86:10:07:8f:c2:b9:bc:36:49:a4:52:
         15:1f:50:08:92:f3:1e:c2:5c:de:26:24:20:49:31:f5:55:d2:
         2f:8d:fc:de
-----BEGIN CERTIFICATE-----
MIIDXjCCAkagAwIBAgIBATANBgkqhkiG9w0BAQsFADASMRAwDgYDVQQDDAdkZXZj
ZXJ0MB4XDTIxMDUxNzA1MTQwNloXDTIzMDgyMDA1MTQwNlowFDESMBAGA1UEAwwJ
bG9jYWxob3N0MIIBIjANBgkqhkiG9w0BAQEFAAOCAQ8AMIIBCgKCAQEAtx6Qcr0n
BfsLflP2cJiuEck6AIMWzn6s/XN+ooHCdPfbmnyvkRQDAKLpaoPLl53OFZuqEfzo
TzGDUDiATcsEggYrKVxGZj6/6mtTr2U6vb3AGyx+kGTmgpT/3NwC32JldCyawiyF
TY7187j9Svo5D9Llq2Ez1tgNpOTAg1YbEjpZvNXfygXFdnHdWjcHZIno+bGtdbz/
1efP3tinpZX0+pHf6DLpotmFKu47d1kBLbxFNNmwm64QVLcCh4nxKak97jI7tQAd
AqyV4WV1QIjvjQ/sNr3vQRTgyyZu6M64jQu/shs9GehCpV4pxamdMgSOqoUrCJYi
EVk4PIl9vZOlzQIDAQABo4G8MIG5MAwGA1UdEwEB/wQCMAAwHQYDVR0OBBYEFEAK
Eg9o2YmW4ZswNYwukqkczD04MEIGA1UdIwQ7MDmAFKlkMkOZiN0kmC+pgB6lxqZs
MnAjoRakFDASMRAwDgYDVQQDDAdkZXZjZXJ0ggkA5CEWbUaSJ6cwDgYDVR0PAQH/
BAQDAgWgMBMGA1UdJQQMMAoGCCsGAQUFBwMBMCEGA1UdEQQaMBiCCWxvY2FsaG9z
dIILKi5sb2NhbGhvc3QwDQYJKoZIhvcNAQELBQADggEBAG1SNmKntA72b0Ht/d9N
TR/Im319npywt1c56ZCv8ULT4qDHq7xi1gqk3NgimAjxXxoysfY8RW3Yex+QjU/3
Ercgk3VYcWp+YTWUVjR7bNncY8Yo/d8l8oQyYGkQR8/KG49+wDYJp/0x0SmsNYjI
CXsNbqkM3BYB2Xw7z+IeZEMlLagL+GcfjWzu93RvERjdMHMtQOPs6qLJY4C6olJi
rlp9Ek7+yrQMyLIdUW8eQ9vYB445Hn+LoqRG4l47zQiJWGekwjoUSLeDIJCQxGvM
apwKS6GdbySJK/zi5BmWpy+GEAePwrm8NkmkUhUfUAiS8x7CXN4mJCBJMfVV0i+N
/N4=
-----END CERTIFICATE-----
